; Function Attrs: mustprogress nofree norecurse nosync nounwind willreturn memory(argmem: readwrite) uwtable
define dso_local void @_ZN23btPoint2PointConstraint8setParamEifi(ptr nocapture noundef nonnull align 8 dereferenceable(384) %this, i32 noundef %num, float noundef %value, i32 noundef %axis) unnamed_addr #6 align 2 {
entry:
  %cmp.not = icmp eq i32 %axis, -1
  br i1 %cmp.not, label %if.else, label %if.end

if.else:                                          ; preds = %entry
  switch i32 %num, label %if.end [
    i32 1, label %sw.bb
    i32 2, label %sw.bb
    i32 3, label %sw.bb2
    i32 4, label %sw.bb2
  ]

sw.bb:                                            ; preds = %if.else, %if.else
  %m_erp = getelementptr inbounds i8, ptr %this, i64 360
  store float %value, ptr %m_erp, align 8
  br label %if.end.sink.split

sw.bb2:                                           ; preds = %if.else, %if.else
  %m_cfm = getelementptr inbounds i8, ptr %this, i64 364
  store float %value, ptr %m_cfm, align 4
  br label %if.end.sink.split

if.end.sink.split:                                ; preds = %sw.bb2, %sw.bb
  %.sink2 = phi i32 [ 1, %sw.bb ], [ 2, %sw.bb2 ]
  %m_flags3 = getelementptr inbounds i8, ptr %this, i64 356
  %0 = load i32, ptr %m_flags3, align 4
  %or = or i32 %0, %.sink2
  store i32 %or, ptr %m_flags3, align 4
  br label %if.end

if.end:                                           ; preds = %if.end.sink.split, %if.else, %entry
  ret void
}